
main:     file format elf64-x86-64


Disassembly of section .init:

0000000000001000 <_init>:
    1000:	f3 0f 1e fa          	endbr64 
    1004:	48 83 ec 08          	sub    $0x8,%rsp
    1008:	48 8b 05 d9 2f 00 00 	mov    0x2fd9(%rip),%rax        # 3fe8 <__gmon_start__@Base>
    100f:	48 85 c0             	test   %rax,%rax
    1012:	74 02                	je     1016 <_init+0x16>
    1014:	ff d0                	call   *%rax
    1016:	48 83 c4 08          	add    $0x8,%rsp
    101a:	c3                   	ret    

Disassembly of section .plt:

0000000000001020 <.plt>:
    1020:	ff 35 7a 2f 00 00    	push   0x2f7a(%rip)        # 3fa0 <_GLOBAL_OFFSET_TABLE_+0x8>
    1026:	f2 ff 25 7b 2f 00 00 	bnd jmp *0x2f7b(%rip)        # 3fa8 <_GLOBAL_OFFSET_TABLE_+0x10>
    102d:	0f 1f 00             	nopl   (%rax)
    1030:	f3 0f 1e fa          	endbr64 
    1034:	68 00 00 00 00       	push   $0x0
    1039:	f2 e9 e1 ff ff ff    	bnd jmp 1020 <_init+0x20>
    103f:	90                   	nop
    1040:	f3 0f 1e fa          	endbr64 
    1044:	68 01 00 00 00       	push   $0x1
    1049:	f2 e9 d1 ff ff ff    	bnd jmp 1020 <_init+0x20>
    104f:	90                   	nop
    1050:	f3 0f 1e fa          	endbr64 
    1054:	68 02 00 00 00       	push   $0x2
    1059:	f2 e9 c1 ff ff ff    	bnd jmp 1020 <_init+0x20>
    105f:	90                   	nop
    1060:	f3 0f 1e fa          	endbr64 
    1064:	68 03 00 00 00       	push   $0x3
    1069:	f2 e9 b1 ff ff ff    	bnd jmp 1020 <_init+0x20>
    106f:	90                   	nop
    1070:	f3 0f 1e fa          	endbr64 
    1074:	68 04 00 00 00       	push   $0x4
    1079:	f2 e9 a1 ff ff ff    	bnd jmp 1020 <_init+0x20>
    107f:	90                   	nop

Disassembly of section .plt.got:

0000000000001080 <__cxa_finalize@plt>:
    1080:	f3 0f 1e fa          	endbr64 
    1084:	f2 ff 25 6d 2f 00 00 	bnd jmp *0x2f6d(%rip)        # 3ff8 <__cxa_finalize@GLIBC_2.2.5>
    108b:	0f 1f 44 00 00       	nopl   0x0(%rax,%rax,1)

Disassembly of section .plt.sec:

0000000000001090 <puts@plt>:
    1090:	f3 0f 1e fa          	endbr64 
    1094:	f2 ff 25 15 2f 00 00 	bnd jmp *0x2f15(%rip)        # 3fb0 <puts@GLIBC_2.2.5>
    109b:	0f 1f 44 00 00       	nopl   0x0(%rax,%rax,1)

00000000000010a0 <freopen@plt>:
    10a0:	f3 0f 1e fa          	endbr64 
    10a4:	f2 ff 25 0d 2f 00 00 	bnd jmp *0x2f0d(%rip)        # 3fb8 <freopen@GLIBC_2.2.5>
    10ab:	0f 1f 44 00 00       	nopl   0x0(%rax,%rax,1)

00000000000010b0 <strcmp@plt>:
    10b0:	f3 0f 1e fa          	endbr64 
    10b4:	f2 ff 25 05 2f 00 00 	bnd jmp *0x2f05(%rip)        # 3fc0 <strcmp@GLIBC_2.2.5>
    10bb:	0f 1f 44 00 00       	nopl   0x0(%rax,%rax,1)

00000000000010c0 <gets@plt>:
    10c0:	f3 0f 1e fa          	endbr64 
    10c4:	f2 ff 25 fd 2e 00 00 	bnd jmp *0x2efd(%rip)        # 3fc8 <gets@GLIBC_2.2.5>
    10cb:	0f 1f 44 00 00       	nopl   0x0(%rax,%rax,1)

00000000000010d0 <exit@plt>:
    10d0:	f3 0f 1e fa          	endbr64 
    10d4:	f2 ff 25 f5 2e 00 00 	bnd jmp *0x2ef5(%rip)        # 3fd0 <exit@GLIBC_2.2.5>
    10db:	0f 1f 44 00 00       	nopl   0x0(%rax,%rax,1)

Disassembly of section .text:

00000000000010e0 <_start>:
    10e0:	f3 0f 1e fa          	endbr64 
    10e4:	31 ed                	xor    %ebp,%ebp
    10e6:	49 89 d1             	mov    %rdx,%r9
    10e9:	5e                   	pop    %rsi
    10ea:	48 89 e2             	mov    %rsp,%rdx
    10ed:	48 83 e4 f0          	and    $0xfffffffffffffff0,%rsp
    10f1:	50                   	push   %rax
    10f2:	54                   	push   %rsp
    10f3:	45 31 c0             	xor    %r8d,%r8d
    10f6:	31 c9                	xor    %ecx,%ecx
    10f8:	48 8d 3d 4f 01 00 00 	lea    0x14f(%rip),%rdi        # 124e <main>
    10ff:	ff 15 d3 2e 00 00    	call   *0x2ed3(%rip)        # 3fd8 <__libc_start_main@GLIBC_2.34>
    1105:	f4                   	hlt    
    1106:	66 2e 0f 1f 84 00 00 	cs nopw 0x0(%rax,%rax,1)
    110d:	00 00 00 

0000000000001110 <deregister_tm_clones>:
    1110:	48 8d 3d 01 2f 00 00 	lea    0x2f01(%rip),%rdi        # 4018 <__TMC_END__>
    1117:	48 8d 05 fa 2e 00 00 	lea    0x2efa(%rip),%rax        # 4018 <__TMC_END__>
    111e:	48 39 f8             	cmp    %rdi,%rax
    1121:	74 15                	je     1138 <deregister_tm_clones+0x28>
    1123:	48 8b 05 b6 2e 00 00 	mov    0x2eb6(%rip),%rax        # 3fe0 <_ITM_deregisterTMCloneTable@Base>
    112a:	48 85 c0             	test   %rax,%rax
    112d:	74 09                	je     1138 <deregister_tm_clones+0x28>
    112f:	ff e0                	jmp    *%rax
    1131:	0f 1f 80 00 00 00 00 	nopl   0x0(%rax)
    1138:	c3                   	ret    
    1139:	0f 1f 80 00 00 00 00 	nopl   0x0(%rax)

0000000000001140 <register_tm_clones>:
    1140:	48 8d 3d d1 2e 00 00 	lea    0x2ed1(%rip),%rdi        # 4018 <__TMC_END__>
    1147:	48 8d 35 ca 2e 00 00 	lea    0x2eca(%rip),%rsi        # 4018 <__TMC_END__>
    114e:	48 29 fe             	sub    %rdi,%rsi
    1151:	48 c1 fe 03          	sar    $0x3,%rsi
    1155:	48 89 f0             	mov    %rsi,%rax
    1158:	48 c1 e8 3f          	shr    $0x3f,%rax
    115c:	48 01 c6             	add    %rax,%rsi
    115f:	48 d1 fe             	sar    %rsi
    1162:	74 14                	je     1178 <register_tm_clones+0x38>
    1164:	48 8b 05 85 2e 00 00 	mov    0x2e85(%rip),%rax        # 3ff0 <_ITM_registerTMCloneTable@Base>
    116b:	48 85 c0             	test   %rax,%rax
    116e:	74 08                	je     1178 <register_tm_clones+0x38>
    1170:	ff e0                	jmp    *%rax
    1172:	66 0f 1f 44 00 00    	nopw   0x0(%rax,%rax,1)
    1178:	c3                   	ret    
    1179:	0f 1f 80 00 00 00 00 	nopl   0x0(%rax)

0000000000001180 <__do_global_dtors_aux>:
    1180:	f3 0f 1e fa          	endbr64 
    1184:	80 3d 9d 2e 00 00 00 	cmpb   $0x0,0x2e9d(%rip)        # 4028 <completed.7970>
    118b:	75 2b                	jne    11b8 <__do_global_dtors_aux+0x38>
    118d:	55                   	push   %rbp
    118e:	48 83 3d 62 2e 00 00 	cmpq   $0x0,0x2e62(%rip)        # 3ff8 <__cxa_finalize@GLIBC_2.2.5>
    1195:	00 
    1196:	48 89 e5             	mov    %rsp,%rbp
    1199:	74 0c                	je     11a7 <__do_global_dtors_aux+0x27>
    119b:	48 8b 3d 66 2e 00 00 	mov    0x2e66(%rip),%rdi        # 4008 <__dso_handle>
    11a2:	e8 d9 fe ff ff       	call   1080 <__cxa_finalize@plt>
    11a7:	e8 64 ff ff ff       	call   1110 <deregister_tm_clones>
    11ac:	c6 05 75 2e 00 00 01 	movb   $0x1,0x2e75(%rip)        # 4028 <completed.7970>
    11b3:	5d                   	pop    %rbp
    11b4:	c3                   	ret    
    11b5:	0f 1f 00             	nopl   (%rax)
    11b8:	c3                   	ret    
    11b9:	0f 1f 80 00 00 00 00 	nopl   0x0(%rax)

00000000000011c0 <frame_dummy>:
    11c0:	f3 0f 1e fa          	endbr64 
    11c4:	e9 77 ff ff ff       	jmp    1140 <register_tm_clones>

00000000000011c9 <success>:
    11c9:	f3 0f 1e fa          	endbr64 
    11cd:	55                   	push   %rbp
    11ce:	48 89 e5             	mov    %rsp,%rbp
    11d1:	48 8d 3d 31 0e 00 00 	lea    0xe31(%rip),%rdi        # 2009 <_IO_stdin_used+0x9>
    11d8:	e8 b3 fe ff ff       	call   1090 <puts@plt>
    11dd:	bf 00 00 00 00       	mov    $0x0,%edi
    11e2:	e8 e9 fe ff ff       	call   10d0 <exit@plt>

00000000000011e7 <fail>:
    11e7:	f3 0f 1e fa          	endbr64 
    11eb:	55                   	push   %rbp
    11ec:	48 89 e5             	mov    %rsp,%rbp
    11ef:	48 8d 3d 1b 0e 00 00 	lea    0xe1b(%rip),%rdi        # 2011 <_IO_stdin_used+0x11>
    11f6:	e8 95 fe ff ff       	call   1090 <puts@plt>
    11fb:	90                   	nop
    11fc:	5d                   	pop    %rbp
    11fd:	c3                   	ret    

00000000000011fe <check>:
    11fe:	f3 0f 1e fa          	endbr64 
    1202:	55                   	push   %rbp
    1203:	48 89 e5             	mov    %rsp,%rbp
    1206:	48 83 ec 10          	sub    $0x10,%rsp
    120a:	48 8d 45 fc          	lea    -0x4(%rbp),%rax
    120e:	48 89 c7             	mov    %rax,%rdi
    1211:	b8 00 00 00 00       	mov    $0x0,%eax
    1216:	e8 a5 fe ff ff       	call   10c0 <gets@plt>
    121b:	48 8b 05 ee 2d 00 00 	mov    0x2dee(%rip),%rax        # 4010 <code>
    1222:	48 8d 55 fc          	lea    -0x4(%rbp),%rdx
    1226:	48 89 d6             	mov    %rdx,%rsi
    1229:	48 89 c7             	mov    %rax,%rdi
    122c:	e8 7f fe ff ff       	call   10b0 <strcmp@plt>
    1231:	85 c0                	test   %eax,%eax
    1233:	75 0c                	jne    1241 <check+0x43>
    1235:	b8 00 00 00 00       	mov    $0x0,%eax
    123a:	e8 8a ff ff ff       	call   11c9 <success>
    123f:	eb 0a                	jmp    124b <check+0x4d>
    1241:	b8 00 00 00 00       	mov    $0x0,%eax
    1246:	e8 9c ff ff ff       	call   11e7 <fail>
    124b:	90                   	nop
    124c:	c9                   	leave  
    124d:	c3                   	ret    

000000000000124e <main>:
    124e:	f3 0f 1e fa          	endbr64 
    1252:	55                   	push   %rbp
    1253:	48 89 e5             	mov    %rsp,%rbp
    1256:	48 8b 05 c3 2d 00 00 	mov    0x2dc3(%rip),%rax        # 4020 <stdin@GLIBC_2.2.5>
    125d:	48 89 c2             	mov    %rax,%rdx
    1260:	48 8d 35 b1 0d 00 00 	lea    0xdb1(%rip),%rsi        # 2018 <_IO_stdin_used+0x18>
    1267:	48 8d 3d ac 0d 00 00 	lea    0xdac(%rip),%rdi        # 201a <_IO_stdin_used+0x1a>
    126e:	e8 2d fe ff ff       	call   10a0 <freopen@plt>
    1273:	b8 00 00 00 00       	mov    $0x0,%eax
    1278:	e8 81 ff ff ff       	call   11fe <check>
    127d:	b8 00 00 00 00       	mov    $0x0,%eax
    1282:	5d                   	pop    %rbp
    1283:	c3                   	ret    

Disassembly of section .fini:

0000000000001284 <_fini>:
    1284:	f3 0f 1e fa          	endbr64 
    1288:	48 83 ec 08          	sub    $0x8,%rsp
    128c:	48 83 c4 08          	add    $0x8,%rsp
    1290:	c3                   	ret    
